; Function Attrs: mustprogress uwtable
define noundef nonnull align 8 dereferenceable(8) ptr @_ZN8QuantLiblsERSoRKNS_8CurrencyE(ptr noundef nonnull align 8 dereferenceable(8) %out, ptr noundef nonnull align 8 dereferenceable(16) %c) local_unnamed_addr #0 {
entry:
  %0 = load ptr, ptr %c, align 8, !tbaa !3
  %cmp.i.i = icmp eq ptr %0, null
  br i1 %cmp.i.i, label %if.else, label %if.then

if.then:                                          ; preds = %entry
  tail call void @_ZNK8QuantLib8Currency13checkNonEmptyEv(ptr noundef nonnull align 8 dereferenceable(16) %c)
  %1 = load ptr, ptr %c, align 8, !tbaa !3
  %cmp.not.i.i = icmp eq ptr %1, null
  br i1 %cmp.not.i.i, label %cond.false.i.i, label %_ZNK8QuantLib8Currency4codeB5cxx11Ev.exit, !prof !9

cond.false.i.i:                                   ; preds = %if.then
  tail call void @_ZN5boost16assertion_failedEPKcS1_S1_l(ptr noundef nonnull @.str.6, ptr noundef nonnull @__PRETTY_FUNCTION__._ZNK5boost10shared_ptrIN8QuantLib8Currency4DataEEptEv, ptr noundef nonnull @.str.7, i64 noundef 784)
  %.pre.i.i = load ptr, ptr %c, align 8, !tbaa !3
  br label %_ZNK8QuantLib8Currency4codeB5cxx11Ev.exit

_ZNK8QuantLib8Currency4codeB5cxx11Ev.exit:        ; preds = %if.then, %cond.false.i.i
  %2 = phi ptr [ %1, %if.then ], [ %.pre.i.i, %cond.false.i.i ]
  %code.i = getelementptr inbounds nuw i8, ptr %2, i64 32
  %3 = load ptr, ptr %code.i, align 8, !tbaa !10
  %_M_string_length.i.i = getelementptr inbounds nuw i8, ptr %2, i64 40
  %4 = load i64, ptr %_M_string_length.i.i, align 8, !tbaa !14
  %call2.i = tail call noundef nonnull align 8 dereferenceable(8) ptr @_ZSt16__ostream_insertIcSt11char_traitsIcEERSt13basic_ostreamIT_T0_ES6_PKS3_l(ptr noundef nonnull align 8 dereferenceable(8) %out, ptr noundef %3, i64 noundef %4)
  br label %return

if.else:                                          ; preds = %entry
  %call1.i = tail call noundef nonnull align 8 dereferenceable(8) ptr @_ZSt16__ostream_insertIcSt11char_traitsIcEERSt13basic_ostreamIT_T0_ES6_PKS3_l(ptr noundef nonnull align 8 dereferenceable(8) %out, ptr noundef nonnull @.str, i64 noundef 13)
  br label %return

return:                                           ; preds = %if.else, %_ZNK8QuantLib8Currency4codeB5cxx11Ev.exit
  %retval.0 = phi ptr [ %out, %if.else ], [ %call2.i, %_ZNK8QuantLib8Currency4codeB5cxx11Ev.exit ]
  ret ptr %retval.0
}